cpygame
__rect_constructor
p1
(I380
I360
I20
I20
tRp2
.(lp1
cpygame
__rect_constructor
p2
(I720
I780
I20
I20
tRp3
ag2
(I40
I320
I20
I20
tRp4
ag2
(I420
I460
I20
I20
tRp5
ag2
(I780
I60
I20
I20
tRp6
ag2
(I680
I300
I20
I20
tRp7
ag2
(I460
I540
I20
I20
tRp8
ag2
(I40
I700
I20
I20
tRp9
ag2
(I560
I700
I20
I20
tRp10
ag2
(I660
I760
I20
I20
tRp11
ag2
(I600
I780
I20
I20
tRp12
ag2
(I460
I200
I20
I20
tRp13
ag2
(I260
I680
I20
I20
tRp14
ag2
(I720
I40
I20
I20
tRp15
ag2
(I0
I180
I20
I20
tRp16
ag2
(I560
I300
I20
I20
tRp17
ag2
(I360
I780
I20
I20
tRp18
ag2
(I60
I500
I20
I20
tRp19
ag2
(I760
I120
I20
I20
tRp20
ag2
(I520
I540
I20
I20
tRp21
ag2
(I700
I460
I20
I20
tRp22
ag2
(I660
I420
I20
I20
tRp23
ag2
(I280
I620
I20
I20
tRp24
ag2
(I600
I440
I20
I20
tRp25
ag2
(I440
I660
I20
I20
tRp26
ag2
(I480
I100
I20
I20
tRp27
ag2
(I700
I500
I20
I20
tRp28
ag2
(I540
I760
I20
I20
tRp29
ag2
(I80
I320
I20
I20
tRp30
ag2
(I0
I280
I20
I20
tRp31
ag2
(I740
I580
I20
I20
tRp32
ag2
(I60
I120
I20
I20
tRp33
ag2
(I600
I40
I20
I20
tRp34
ag2
(I480
I120
I20
I20
tRp35
ag2
(I120
I400
I20
I20
tRp36
ag2
(I240
I700
I20
I20
tRp37
ag2
(I380
I680
I20
I20
tRp38
ag2
(I100
I520
I20
I20
tRp39
ag2
(I540
I420
I20
I20
tRp40
ag2
(I360
I100
I20
I20
tRp41
ag2
(I60
I780
I20
I20
tRp42
ag2
(I480
I400
I20
I20
tRp43
ag2
(I200
I280
I20
I20
tRp44
ag2
(I660
I500
I20
I20
tRp45
ag2
(I640
I500
I20
I20
tRp46
ag2
(I60
I20
I20
I20
tRp47
ag2
(I740
I240
I20
I20
tRp48
ag2
(I40
I580
I20
I20
tRp49
ag2
(I580
I500
I20
I20
tRp50
ag2
(I520
I480
I20
I20
tRp51
ag2
(I160
I20
I20
I20
tRp52
ag2
(I780
I320
I20
I20
tRp53
ag2
(I680
I560
I20
I20
tRp54
ag2
(I280
I600
I20
I20
tRp55
ag2
(I340
I500
I20
I20
tRp56
ag2
(I160
I240
I20
I20
tRp57
ag2
(I480
I0
I20
I20
tRp58
ag2
(I180
I680
I20
I20
tRp59
ag2
(I400
I500
I20
I20
tRp60
ag2
(I480
I60
I20
I20
tRp61
ag2
(I780
I720
I20
I20
tRp62
ag2
(I720
I700
I20
I20
tRp63
ag2
(I40
I240
I20
I20
tRp64
ag2
(I420
I60
I20
I20
tRp65
ag2
(I760
I780
I20
I20
tRp66
ag2
(I680
I220
I20
I20
tRp67
ag2
(I300
I420
I20
I20
tRp68
ag2
(I340
I160
I20
I20
tRp69
ag2
(I280
I140
I20
I20
tRp70
ag2
(I280
I640
I20
I20
tRp71
ag2
(I560
I560
I20
I20
tRp72
ag2
(I560
I620
I20
I20
tRp73
ag2
(I100
I180
I20
I20
tRp74
ag2
(I0
I780
I20
I20
tRp75
ag2
(I660
I680
I20
I20
tRp76
ag2
(I220
I540
I20
I20
tRp77
ag2
(I600
I700
I20
I20
tRp78
ag2
(I320
I620
I20
I20
tRp79
ag2
(I20
I100
I20
I20
tRp80
ag2
(I460
I120
I20
I20
tRp81
ag2
(I180
I0
I20
I20
tRp82
ag2
(I260
I600
I20
I20
tRp83
ag2
(I700
I760
I20
I20
tRp84
ag2
(I140
I600
I20
I20
tRp85
ag2
(I560
I220
I20
I20
tRp86
ag2
(I80
I580
I20
I20
tRp87
ag2
(I500
I200
I20
I20
tRp88
ag2
(I220
I80
I20
I20
tRp89
ag2
(I220
I560
I20
I20
tRp90
ag2
(I760
I40
I20
I20
tRp91
ag2
(I600
I720
I20
I20
tRp92
ag2
(I380
I300
I20
I20
tRp93
ag2
(I280
I540
I20
I20
tRp94
ag2
(I260
I0
I20
I20
tRp95
ag2
(I320
I280
I20
I20
tRp96
ag2
(I0
I600
I20
I20
tRp97
ag2
(I440
I580
I20
I20
tRp98
ag2
(I260
I260
I20
I20
tRp99
ag2
(I240
I140
I20
I20
tRp100
ag2
(I320
I360
I20
I20
tRp101
ag2
(I140
I260
I20
I20
tRp102
ag2
(I540
I680
I20
I20
tRp103
ag2
(I80
I240
I20
I20
tRp104
ag2
(I0
I200
I20
I20
tRp105
ag2
(I740
I500
I20
I20
tRp106
ag2
(I60
I40
I20
I20
tRp107
ag2
(I580
I760
I20
I20
tRp108
ag2
(I120
I320
I20
I20
tRp109
ag2
(I660
I640
I20
I20
tRp110
ag2
(I440
I180
I20
I20
tRp111
ag2
(I780
I580
I20
I20
tRp112
ag2
(I260
I40
I20
I20
tRp113
ag2
(I700
I20
I20
I20
tRp114
ag2
(I700
I80
I20
I20
tRp115
ag2
(I120
I720
I20
I20
tRp116
ag2
(I60
I700
I20
I20
tRp117
ag2
(I480
I320
I20
I20
tRp118
ag2
(I200
I200
I20
I20
tRp119
ag2
(I320
I400
I20
I20
tRp120
ag2
(I740
I160
I20
I20
tRp121
ag2
(I640
I440
I20
I20
tRp122
ag2
(I580
I420
I20
I20
tRp123
ag2
(I100
I780
I20
I20
tRp124
ag2
(I520
I400
I20
I20
tRp125
ag2
(I240
I280
I20
I20
tRp126
ag2
(I780
I240
I20
I20
tRp127
ag2
(I680
I480
I20
I20
tRp128
ag2
(I300
I680
I20
I20
tRp129
ag2
(I580
I100
I20
I20
tRp130
ag2
(I340
I420
I20
I20
tRp131
ag2
(I460
I720
I20
I20
tRp132
ag2
(I180
I600
I20
I20
tRp133
ag2
(I0
I340
I20
I20
tRp134
ag2
(I460
I460
I20
I20
tRp135
ag2
(I780
I640
I20
I20
tRp136
ag2
(I440
I140
I20
I20
tRp137
ag2
(I40
I160
I20
I20
tRp138
ag2
(I580
I80
I20
I20
tRp139
ag2
(I40
I20
I20
I20
tRp140
ag2
(I100
I440
I20
I20
tRp141
ag2
(I520
I60
I20
I20
tRp142
ag2
(I220
I740
I20
I20
tRp143
ag2
(I0
I680
I20
I20
tRp144
ag2
(I40
I400
I20
I20
tRp145
ag2
(I760
I700
I20
I20
tRp146
ag2
(I680
I140
I20
I20
tRp147
ag2
(I400
I100
I20
I20
tRp148
ag2
(I620
I160
I20
I20
tRp149
ag2
(I340
I80
I20
I20
tRp150
ag2
(I180
I260
I20
I20
tRp151
ag2
(I280
I60
I20
I20
tRp152
ag2
(I720
I220
I20
I20
tRp153
ag2
(I240
I260
I20
I20
tRp154
ag2
(I160
I560
I20
I20
tRp155
ag2
(I160
I60
I20
I20
tRp156
ag2
(I240
I780
I20
I20
tRp157
ag2
(I380
I160
I20
I20
tRp158
ag2
(I100
I40
I20
I20
tRp159
ag2
(I240
I20
I20
I20
tRp160
ag2
(I500
I460
I20
I20
tRp161
ag2
(I220
I400
I20
I20
tRp162
ag2
(I480
I740
I20
I20
tRp163
ag2
(I660
I600
I20
I20
tRp164
ag2
(I380
I560
I20
I20
tRp165
ag2
(I300
I0
I20
I20
tRp166
ag2
(I0
I440
I20
I20
tRp167
ag2
(I160
I580
I20
I20
tRp168
ag2
(I20
I20
I20
I20
tRp169
ag2
(I460
I40
I20
I20
tRp170
ag2
(I160
I720
I20
I20
tRp171
ag2
(I260
I520
I20
I20
tRp172
ag2
(I200
I300
I20
I20
tRp173
ag2
(I700
I680
I20
I20
tRp174
ag2
(I140
I520
I20
I20
tRp175
ag2
(I560
I140
I20
I20
tRp176
ag2
(I360
I620
I20
I20
tRp177
ag2
(I80
I500
I20
I20
tRp178
ag2
(I500
I120
I20
I20
tRp179
ag2
(I220
I0
I20
I20
tRp180
ag2
(I440
I780
I20
I20
tRp181
ag2
(I80
I20
I20
I20
tRp182
ag2
(I60
I300
I20
I20
tRp183
ag2
(I660
I440
I20
I20
tRp184
ag2
(I320
I200
I20
I20
tRp185
ag2
(I0
I520
I20
I20
tRp186
ag2
(I440
I500
I20
I20
tRp187
ag2
(I260
I180
I20
I20
tRp188
ag2
(I340
I260
I20
I20
tRp189
ag2
(I0
I20
I20
I20
tRp190
ag2
(I580
I200
I20
I20
tRp191
ag2
(I540
I600
I20
I20
tRp192
ag2
(I80
I160
I20
I20
tRp193
ag2
(I0
I120
I20
I20
tRp194
ag2
(I440
I260
I20
I20
tRp195
ag2
(I740
I420
I20
I20
tRp196
ag2
(I640
I700
I20
I20
tRp197
ag2
(I580
I680
I20
I20
tRp198
ag2
(I40
I140
I20
I20
tRp199
ag2
(I120
I240
I20
I20
tRp200
ag2
(I520
I660
I20
I20
tRp201
ag2
(I440
I100
I20
I20
tRp202
ag2
(I660
I60
I20
I20
tRp203
ag2
(I780
I500
I20
I20
tRp204
ag2
(I680
I740
I20
I20
tRp205
ag2
(I20
I480
I20
I20
tRp206
ag2
(I540
I260
I20
I20
tRp207
ag2
(I340
I740
I20
I20
tRp208
ag2
(I60
I620
I20
I20
tRp209
ag2
(I480
I240
I20
I20
tRp210
ag2
(I200
I120
I20
I20
tRp211
ag2
(I740
I80
I20
I20
tRp212
ag2
(I480
I460
I20
I20
tRp213
ag2
(I40
I420
I20
I20
tRp214
ag2
(I680
I640
I20
I20
tRp215
ag2
(I100
I700
I20
I20
tRp216
ag2
(I520
I320
I20
I20
tRp217
ag2
(I780
I160
I20
I20
tRp218
ag2
(I680
I400
I20
I20
tRp219
ag2
(I420
I600
I20
I20
tRp220
ag2
(I300
I600
I20
I20
tRp221
ag2
(I620
I420
I20
I20
tRp222
ag2
(I300
I120
I20
I20
tRp223
ag2
(I460
I640
I20
I20
tRp224
ag2
(I180
I520
I20
I20
tRp225
ag2
(I280
I320
I20
I20
tRp226
ag2
(I640
I420
I20
I20
tRp227
ag2
(I720
I480
I20
I20
tRp228
ag2
(I640
I400
I20
I20
tRp229
ag2
(I720
I540
I20
I20
tRp230
ag2
(I640
I20
I20
I20
tRp231
ag2
(I580
I0
I20
I20
tRp232
ag2
(I500
I780
I20
I20
tRp233
ag2
(I420
I220
I20
I20
tRp234
ag2
(I300
I140
I20
I20
tRp235
ag2
(I80
I700
I20
I20
tRp236
ag2
(I680
I60
I20
I20
tRp237
ag2
(I300
I260
I20
I20
tRp238
ag2
(I620
I80
I20
I20
tRp239
ag2
(I340
I0
I20
I20
tRp240
ag2
(I600
I680
I20
I20
tRp241
ag2
(I460
I300
I20
I20
tRp242
ag2
(I180
I180
I20
I20
tRp243
ag2
(I260
I780
I20
I20
tRp244
ag2
(I140
I780
I20
I20
tRp245
ag2
(I300
I160
I20
I20
tRp246
ag2
(I80
I760
I20
I20
tRp247
ag2
(I420
I140
I20
I20
tRp248
ag2
(I500
I380
I20
I20
tRp249
ag2
(I220
I260
I20
I20
tRp250
ag2
(I180
I760
I20
I20
tRp251
ag2
(I760
I280
I20
I20
tRp252
ag2
(I660
I520
I20
I20
tRp253
ag2
(I280
I720
I20
I20
tRp254
ag2
(I320
I460
I20
I20
tRp255
ag2
(I0
I740
I20
I20
tRp256
ag2
(I440
I760
I20
I20
tRp257
ag2
(I300
I180
I20
I20
tRp258
ag2
(I260
I440
I20
I20
tRp259
ag2
(I700
I600
I20
I20
tRp260
ag2
(I140
I440
I20
I20
tRp261
ag2
(I80
I420
I20
I20
tRp262
ag2
(I500
I40
I20
I20
tRp263
ag2
(I240
I500
I20
I20
tRp264
ag2
(I740
I680
I20
I20
tRp265
ag2
(I240
I80
I20
I20
tRp266
ag2
(I120
I500
I20
I20
tRp267
ag2
(I20
I500
I20
I20
tRp268
ag2
(I540
I120
I20
I20
tRp269
ag2
(I440
I360
I20
I20
tRp270
ag2
(I440
I420
I20
I20
tRp271
ag2
(I160
I300
I20
I20
tRp272
ag2
(I260
I100
I20
I20
tRp273
ag2
(I420
I720
I20
I20
tRp274
ag2
(I700
I260
I20
I20
tRp275
ag2
(I140
I100
I20
I20
tRp276
ag2
(I240
I100
I20
I20
tRp277
ag2
(I80
I80
I20
I20
tRp278
ag2
(I480
I500
I20
I20
tRp279
ag2
(I640
I520
I20
I20
tRp280
ag2
(I740
I340
I20
I20
tRp281
ag2
(I40
I680
I20
I20
tRp282
ag2
(I580
I600
I20
I20
tRp283
ag2
(I120
I160
I20
I20
tRp284
ag2
(I520
I580
I20
I20
tRp285
ag2
(I320
I700
I20
I20
tRp286
ag2
(I680
I660
I20
I20
tRp287
ag2
(I400
I620
I20
I20
tRp288
ag2
(I320
I60
I20
I20
tRp289
ag2
(I620
I680
I20
I20
tRp290
ag2
(I240
I60
I20
I20
tRp291
ag2
(I540
I180
I20
I20
tRp292
ag2
(I340
I660
I20
I20
tRp293
ag2
(I60
I540
I20
I20
tRp294
ag2
(I480
I160
I20
I20
tRp295
ag2
(I200
I40
I20
I20
tRp296
ag2
(I740
I0
I20
I20
tRp297
ag2
(I640
I280
I20
I20
tRp298
ag2
(I320
I720
I20
I20
tRp299
ag2
(I100
I620
I20
I20
tRp300
ag2
(I520
I240
I20
I20
tRp301
ag2
(I420
I480
I20
I20
tRp302
ag2
(I780
I80
I20
I20
tRp303
ag2
(I680
I320
I20
I20
tRp304
ag2
(I300
I520
I20
I20
tRp305
ag2
(I660
I300
I20
I20
tRp306
ag2
(I20
I540
I20
I20
tRp307
ag2
(I180
I440
I20
I20
tRp308
ag2
(I280
I240
I20
I20
tRp309
ag2
(I20
I180
I20
I20
tRp310
ag2
(I420
I260
I20
I20
tRp311
ag2
(I720
I400
I20
I20
tRp312
ag2
(I340
I680
I20
I20
tRp313
ag2
(I620
I740
I20
I20
tRp314
ag2
(I560
I720
I20
I20
tRp315
ag2
(I100
I280
I20
I20
tRp316
ag2
(I500
I700
I20
I20
tRp317
ag2
(I240
I620
I20
I20
tRp318
ag2
(I20
I0
I20
I20
tRp319
ag2
(I660
I780
I20
I20
tRp320
ag2
(I20
I200
I20
I20
tRp321
ag2
(I620
I0
I20
I20
tRp322
ag2
(I720
I60
I20
I20
tRp323
ag2
(I140
I700
I20
I20
tRp324
ag2
(I180
I80
I20
I20
tRp325
ag2
(I660
I80
I20
I20
tRp326
ag2
(I760
I200
I20
I20
tRp327
ag2
(I0
I540
I20
I20
tRp328
ag2
(I440
I680
I20
I20
tRp329
ag2
(I180
I100
I20
I20
tRp330
ag2
(I700
I520
I20
I20
tRp331
ag2
(I540
I780
I20
I20
tRp332
ag2
(I480
I760
I20
I20
tRp333
ag2
(I740
I600
I20
I20
tRp334
ag2
(I120
I420
I20
I20
tRp335
ag2
(I440
I280
I20
I20
tRp336
ag2
(I520
I220
I20
I20
tRp337
ag2
(I40
I500
I20
I20
tRp338
ag2
(I140
I20
I20
I20
tRp339
ag2
(I540
I440
I20
I20
tRp340
ag2
(I360
I120
I20
I20
tRp341
ag2
(I80
I0
I20
I20
tRp342
ag2
(I80
I360
I20
I20
tRp343
ag2
(I740
I260
I20
I20
tRp344
ag2
(I40
I600
I20
I20
tRp345
ag2
(I120
I80
I20
I20
tRp346
ag2
(I520
I500
I20
I20
tRp347
ag2
(I240
I380
I20
I20
tRp348
ag2
(I780
I340
I20
I20
tRp349
ag2
(I680
I580
I20
I20
tRp350
ag2
(I180
I480
I20
I20
tRp351
ag2
(I0
I300
I20
I20
tRp352
ag2
(I620
I600
I20
I20
tRp353
ag2
(I340
I520
I20
I20
tRp354
ag2
(I100
I220
I20
I20
tRp355
ag2
(I480
I80
I20
I20
tRp356
ag2
(I780
I740
I20
I20
tRp357
ag2
(I720
I720
I20
I20
tRp358
ag2
(I40
I260
I20
I20
tRp359
ag2
(I0
I100
I20
I20
tRp360
ag2
(I40
I40
I20
I20
tRp361
ag2
(I100
I540
I20
I20
tRp362
ag2
(I240
I40
I20
I20
tRp363
ag2
(I60
I280
I20
I20
tRp364
ag2
(I780
I0
I20
I20
tRp365
ag2
(I680
I240
I20
I20
tRp366
ag2
(I340
I180
I20
I20
tRp367
ag2
(I460
I480
I20
I20
tRp368
ag2
(I180
I360
I20
I20
tRp369
ag2
(I280
I160
I20
I20
tRp370
ag2
(I300
I440
I20
I20
tRp371
ag2
(I720
I320
I20
I20
tRp372
ag2
(I160
I160
I20
I20
tRp373
ag2
(I560
I320
I20
I20
tRp374
ag2
(I100
I200
I20
I20
tRp375
ag2
(I660
I700
I20
I20
tRp376
ag2
(I300
I460
I20
I20
tRp377
ag2
(I300
I100
I20
I20
tRp378
ag2
(I320
I640
I20
I20
tRp379
ag2
(I20
I120
I20
I20
tRp380
ag2
(I180
I20
I20
I20
tRp381
ag2
(I260
I620
I20
I20
tRp382
ag2
(I700
I780
I20
I20
tRp383
ag2
(I140
I620
I20
I20
tRp384
ag2
(I560
I240
I20
I20
tRp385
ag2
(I360
I720
I20
I20
tRp386
ag2
(I80
I600
I20
I20
tRp387
ag2
(I500
I220
I20
I20
tRp388
ag2
(I220
I100
I20
I20
tRp389
ag2
(I580
I620
I20
I20
tRp390
ag2
(I760
I60
I20
I20
tRp391
ag2
(I60
I400
I20
I20
tRp392
ag2
(I480
I580
I20
I20
tRp393
ag2
(I280
I560
I20
I20
tRp394
ag2
(I320
I300
I20
I20
tRp395
ag2
(I0
I580
I20
I20
tRp396
ag2
(I440
I600
I20
I20
tRp397
ag2
(I160
I480
I20
I20
tRp398
ag2
(I260
I280
I20
I20
tRp399
ag2
(I700
I440
I20
I20
tRp400
ag2
(I300
I500
I20
I20
tRp401
ag2
(I0
I80
I20
I20
tRp402
ag2
(I140
I280
I20
I20
tRp403
ag2
(I540
I700
I20
I20
tRp404
ag2
(I360
I380
I20
I20
tRp405
ag2
(I80
I260
I20
I20
tRp406
ag2
(I420
I40
I20
I20
tRp407
ag2
(I0
I220
I20
I20
tRp408
ag2
(I740
I520
I20
I20
tRp409
ag2
(I660
I0
I20
I20
tRp410
ag2
(I580
I780
I20
I20
tRp411
ag2
(I120
I340
I20
I20
tRp412
ag2
(I240
I400
I20
I20
tRp413
ag2
(I520
I760
I20
I20
tRp414
ag2
(I240
I640
I20
I20
tRp415
ag2
(I600
I400
I20
I20
tRp416
ag2
(I780
I600
I20
I20
tRp417
ag2
(I700
I40
I20
I20
tRp418
ag2
(I300
I80
I20
I20
tRp419
ag2
(I700
I100
I20
I20
tRp420
ag2
(I120
I740
I20
I20
tRp421
ag2
(I60
I720
I20
I20
tRp422
ag2
(I200
I220
I20
I20
tRp423
ag2
(I240
I420
I20
I20
tRp424
ag2
(I40
I520
I20
I20
tRp425
ag2
(I580
I440
I20
I20
tRp426
ag2
(I120
I0
I20
I20
tRp427
ag2
(I520
I420
I20
I20
tRp428
ag2
(I240
I300
I20
I20
tRp429
ag2
(I780
I260
I20
I20
tRp430
ag2
(I680
I500
I20
I20
tRp431
ag2
(I300
I700
I20
I20
tRp432
ag2
(I340
I220
I20
I20
tRp433
ag2
(I340
I440
I20
I20
tRp434
ag2
(I460
I740
I20
I20
tRp435
ag2
(I180
I620
I20
I20
tRp436
ag2
(I280
I420
I20
I20
tRp437
ag2
(I780
I660
I20
I20
tRp438
ag2
(I40
I740
I20
I20
tRp439
ag2
(I720
I640
I20
I20
tRp440
ag2
(I40
I180
I20
I20
tRp441
ag2
(I520
I80
I20
I20
tRp442
ag2
(I340
I240
I20
I20
tRp443
ag2
(I760
I720
I20
I20
tRp444
ag2
(I300
I360
I20
I20
tRp445
ag2
(I340
I100
I20
I20
tRp446
ag2
(I180
I280
I20
I20
tRp447
ag2
(I280
I80
I20
I20
tRp448
ag2
(I720
I240
I20
I20
tRp449
ag2
(I440
I40
I20
I20
tRp450
ag2
(I160
I80
I20
I20
tRp451
ag2
(I380
I180
I20
I20
tRp452
ag2
(I100
I60
I20
I20
tRp453
ag2
(I20
I140
I20
I20
tRp454
ag2
(I500
I480
I20
I20
tRp455
ag2
(I100
I120
I20
I20
tRp456
ag2
(I400
I780
I20
I20
tRp457
ag2
(I300
I20
I20
I20
tRp458
ag2
(I20
I520
I20
I20
tRp459
ag2
(I320
I560
I20
I20
tRp460
ag2
(I20
I40
I20
I20
tRp461
ag2
(I460
I60
I20
I20
tRp462
ag2
(I160
I740
I20
I20
tRp463
ag2
(I260
I540
I20
I20
tRp464
ag2
(I700
I700
I20
I20
tRp465
ag2
(I140
I540
I20
I20
tRp466
ag2
(I80
I520
I20
I20
tRp467
ag2
(I220
I20
I20
I20
tRp468
ag2
(I180
I400
I20
I20
tRp469
ag2
(I740
I780
I20
I20
tRp470
ag2
(I660
I260
I20
I20
tRp471
ag2
(I600
I240
I20
I20
tRp472
ag2
(I280
I480
I20
I20
tRp473
ag2
(I320
I220
I20
I20
tRp474
ag2
(I0
I400
I20
I20
tRp475
ag2
(I440
I520
I20
I20
tRp476
ag2
(I160
I400
I20
I20
tRp477
ag2
(I260
I200
I20
I20
tRp478
ag2
(I420
I740
I20
I20
tRp479
ag2
(I700
I360
I20
I20
tRp480
ag2
(I180
I420
I20
I20
tRp481
ag2
(I140
I200
I20
I20
tRp482
ag2
(I540
I620
I20
I20
tRp483
ag2
(I80
I180
I20
I20
tRp484
ag2
(I0
I140
I20
I20
tRp485
ag2
(I200
I480
I20
I20
tRp486
ag2
(I60
I60
I20
I20
tRp487
ag2
(I740
I440
I20
I20
tRp488
ag2
(I40
I780
I20
I20
tRp489
ag2
(I580
I700
I20
I20
tRp490
ag2
(I120
I260
I20
I20
tRp491
ag2
(I520
I680
I20
I20
tRp492
ag2
(I80
I660
I20
I20
tRp493
ag2
(I780
I520
I20
I20
tRp494
ag2
(I680
I760
I20
I20
tRp495
ag2
(I380
I0
I20
I20
tRp496
ag2
(I120
I660
I20
I20
tRp497
ag2
(I540
I280
I20
I20
tRp498
ag2
(I480
I260
I20
I20
tRp499
ag2
(I200
I140
I20
I20
tRp500
ag2
(I540
I560
I20
I20
tRp501
ag2
(I740
I100
I20
I20
tRp502
ag2
(I80
I680
I20
I20
tRp503
ag2
(I640
I380
I20
I20
tRp504
ag2
(I660
I280
I20
I20
tRp505
ag2
(I580
I360
I20
I20
tRp506
ag2
(I100
I720
I20
I20
tRp507
ag2
(I520
I340
I20
I20
tRp508
ag2
(I240
I220
I20
I20
tRp509
ag2
(I660
I180
I20
I20
tRp510
ag2
(I780
I180
I20
I20
tRp511
ag2
(I680
I420
I20
I20
tRp512
ag2
(I300
I620
I20
I20
tRp513
ag2
(I620
I440
I20
I20
tRp514
ag2
(I660
I320
I20
I20
tRp515
ag2
(I600
I60
I20
I20
tRp516
ag2
(I20
I620
I20
I20
tRp517
ag2
(I460
I660
I20
I20
tRp518
ag2
(I180
I540
I20
I20
tRp519
ag2
(I520
I280
I20
I20
tRp520
ag2
(I720
I500
I20
I20
tRp521
ag2
(I720
I560
I20
I20
tRp522
ag2
(I640
I40
I20
I20
tRp523
ag2
(I740
I120
I20
I20
tRp524
ag2
(I520
I0
I20
I20
tRp525
ag2
(I420
I240
I20
I20
tRp526
ag2
(I500
I300
I20
I20
tRp527
ag2
(I760
I640
I20
I20
tRp528
ag2
(I680
I80
I20
I20
tRp529
ag2
(I300
I280
I20
I20
tRp530
ag2
(I620
I100
I20
I20
tRp531
ag2
(I340
I20
I20
I20
tRp532
ag2
(I20
I300
I20
I20
tRp533
ag2
(I460
I320
I20
I20
tRp534
ag2
(I180
I200
I20
I20
tRp535
ag2
(I280
I0
I20
I20
tRp536
ag2
(I720
I160
I20
I20
tRp537
ag2
(I160
I0
I20
I20
tRp538
ag2
(I560
I420
I20
I20
tRp539
ag2
(I80
I780
I20
I20
tRp540
ag2
(I500
I400
I20
I20
tRp541
ag2
(I220
I280
I20
I20
tRp542
ag2
(I640
I660
I20
I20
tRp543
ag2
(I60
I180
I20
I20
tRp544
ag2
(I760
I300
I20
I20
tRp545
ag2
(I660
I540
I20
I20
tRp546
ag2
(I280
I740
I20
I20
tRp547
ag2
(I320
I480
I20
I20
tRp548
ag2
(I300
I780
I20
I20
tRp549
ag2
(I160
I660
I20
I20
tRp550
ag2
(I260
I460
I20
I20
tRp551
ag2
(I240
I180
I20
I20
tRp552
ag2
(I560
I80
I20
I20
tRp553
ag2
(I80
I440
I20
I20
tRp554
ag2
(I500
I60
I20
I20
tRp555
ag2
(I480
I660
I20
I20
tRp556
ag2
(I740
I700
I20
I20
tRp557
ag2
(I440
I240
I20
I20
tRp558
ag2
(I600
I160
I20
I20
tRp559
ag2
(I120
I520
I20
I20
tRp560
ag2
(I220
I120
I20
I20
tRp561
ag2
(I540
I140
I20
I20
tRp562
ag2
(I320
I140
I20
I20
tRp563
ag2
(I0
I420
I20
I20
tRp564
ag2
(I440
I440
I20
I20
tRp565
ag2
(I160
I320
I20
I20
tRp566
ag2
(I260
I120
I20
I20
tRp567
ag2
(I700
I280
I20
I20
tRp568
ag2
(I640
I200
I20
I20
tRp569
ag2
(I140
I120
I20
I20
tRp570
ag2
(I540
I540
I20
I20
tRp571
ag2
(I320
I20
I20
I20
tRp572
ag2
(I360
I220
I20
I20
tRp573
ag2
(I80
I100
I20
I20
tRp574
ag2
(I480
I520
I20
I20
tRp575
ag2
(I200
I400
I20
I20
tRp576
ag2
(I640
I640
I20
I20
tRp577
ag2
(I120
I180
I20
I20
tRp578
ag2
(I520
I600
I20
I20
tRp579
ag2
(I240
I480
I20
I20
tRp580
ag2
(I300
I720
I20
I20
tRp581
ag2
(I240
I720
I20
I20
tRp582
ag2
(I780
I440
I20
I20
tRp583
ag2
(I680
I680
I20
I20
tRp584
ag2
(I180
I500
I20
I20
tRp585
ag2
(I320
I80
I20
I20
tRp586
ag2
(I640
I540
I20
I20
tRp587
ag2
(I620
I700
I20
I20
tRp588
ag2
(I120
I580
I20
I20
tRp589
ag2
(I540
I200
I20
I20
tRp590
ag2
(I60
I560
I20
I20
tRp591
ag2
(I400
I740
I20
I20
tRp592
ag2
(I200
I60
I20
I20
tRp593
ag2
(I500
I280
I20
I20
tRp594
ag2
(I740
I20
I20
I20
tRp595
ag2
(I640
I300
I20
I20
tRp596
ag2
(I240
I740
I20
I20
tRp597
ag2
(I40
I60
I20
I20
tRp598
ag2
(I520
I260
I20
I20
tRp599
ag2
(I420
I500
I20
I20
tRp600
ag2
(I640
I780
I20
I20
tRp601
ag2
(I520
I740
I20
I20
tRp602
ag2
(I300
I540
I20
I20
tRp603
ag2
(I340
I280
I20
I20
tRp604
ag2
(I20
I560
I20
I20
tRp605
ag2
(I460
I580
I20
I20
tRp606
ag2
(I700
I420
I20
I20
tRp607
ag2
(I340
I540
I20
I20
tRp608
ag2
(I720
I420
I20
I20
tRp609
ag2
(I600
I460
I20
I20
tRp610
ag2
(I620
I760
I20
I20
tRp611
ag2
(I560
I740
I20
I20
tRp612
ag2
(I100
I300
I20
I20
tRp613
ag2
(I500
I720
I20
I20
tRp614
ag2
(I340
I560
I20
I20
tRp615
ag2
(I420
I520
I20
I20
tRp616
ag2
(I300
I200
I20
I20
tRp617
ag2
(I620
I20
I20
I20
tRp618
ag2
(I320
I740
I20
I20
tRp619
ag2
(I20
I220
I20
I20
tRp620
ag2
(I460
I240
I20
I20
tRp621
ag2
(I180
I120
I20
I20
tRp622
ag2
(I260
I720
I20
I20
tRp623
ag2
(I720
I80
I20
I20
tRp624
ag2
(I140
I720
I20
I20
tRp625
ag2
(I20
I780
I20
I20
tRp626
ag2
(I500
I320
I20
I20
tRp627
ag2
(I220
I200
I20
I20
tRp628
ag2
(I300
I560
I20
I20
tRp629
ag2
(I760
I220
I20
I20
tRp630
ag2
(I660
I460
I20
I20
tRp631
ag2
(I380
I420
I20
I20
tRp632
ag2
(I280
I660
I20
I20
tRp633
ag2
(I600
I480
I20
I20
tRp634
ag2
(I440
I700
I20
I20
tRp635
ag2
(I700
I540
I20
I20
tRp636
ag2
(I560
I0
I20
I20
tRp637
ag2
(I360
I480
I20
I20
tRp638
ag2
(I480
I780
I20
I20
tRp639
ag2
(I660
I100
I20
I20
tRp640
ag2
(I260
I20
I20
I20
tRp641
ag2
(I440
I300
I20
I20
tRp642
ag2
(I180
I60
I20
I20
tRp643
ag2
(I700
I200
I20
I20
tRp644
ag2
(I540
I460
I20
I20
tRp645
ag2
(I340
I620
I20
I20
tRp646
ag2
(I740
I280
I20
I20
tRp647
ag2
(I640
I560
I20
I20
tRp648
ag2
(I580
I540
I20
I20
tRp649
ag2
(I420
I760
I20
I20
tRp650
ag2
(I780
I360
I20
I20
tRp651
ag2
(I680
I600
I20
I20
tRp652
ag2
(I180
I740
I20
I20
tRp653
ag2
(I320
I0
I20
I20
tRp654
ag2
(I420
I120
I20
I20
tRp655
ag2
(I340
I600
I20
I20
tRp656
ag2
(I60
I480
I20
I20
tRp657
ag2
(I180
I780
I20
I20
tRp658
ag2
(I780
I760
I20
I20
tRp659
ag2
(I40
I760
I20
I20
tRp660
ag2
(I720
I740
I20
I20
tRp661
ag2
(I40
I280
I20
I20
tRp662
ag2
(I100
I560
I20
I20
tRp663
ag2
(I420
I420
I20
I20
tRp664
ag2
(I780
I20
I20
I20
tRp665
ag2
(I680
I260
I20
I20
tRp666
ag2
(I400
I220
I20
I20
tRp667
ag2
(I340
I200
I20
I20
tRp668
ag2
(I460
I500
I20
I20
tRp669
ag2
(I280
I180
I20
I20
tRp670
ag2
(I0
I240
I20
I20
tRp671
ag2
(I600
I80
I20
I20
tRp672
ag2
(I560
I600
I20
I20
tRp673
ag2
(I560
I660
I20
I20
tRp674
ag2
(I420
I80
I20
I20
tRp675
ag2
(I200
I0
I20
I20
tRp676
ag2
(I600
I740
I20
I20
tRp677
ag2
(I320
I660
I20
I20
tRp678
ag2
(I180
I40
I20
I20
tRp679
ag2
(I260
I640
I20
I20
tRp680
ag2
(I720
I0
I20
I20
tRp681
ag2
(I560
I260
I20
I20
tRp682
ag2
(I360
I740
I20
I20
tRp683
ag2
(I80
I620
I20
I20
tRp684
ag2
(I500
I240
I20
I20
tRp685
ag2
(I640
I60
I20
I20
tRp686
ag2
(I760
I80
I20
I20
tRp687
ag2
(I620
I120
I20
I20
tRp688
ag2
(I60
I420
I20
I20
tRp689
ag2
(I280
I580
I20
I20
tRp690
ag2
(I320
I320
I20
I20
tRp691
ag2
(I0
I380
I20
I20
tRp692
ag2
(I440
I620
I20
I20
tRp693
ag2
(I160
I500
I20
I20
tRp694
ag2
(I260
I300
I20
I20
tRp695
ag2
(I100
I260
I20
I20
tRp696
ag2
(I140
I300
I20
I20
tRp697
ag2
(I540
I720
I20
I20
tRp698
ag2
(I80
I280
I20
I20
tRp699
ag2
(I720
I300
I20
I20
tRp700
ag2
(I480
I700
I20
I20
tRp701
ag2
(I60
I80
I20
I20
tRp702
ag2
(I740
I540
I20
I20
tRp703
ag2
(I660
I20
I20
I20
tRp704
ag2
(I600
I0
I20
I20
tRp705
ag2
(I440
I540
I20
I20
tRp706
ag2
(I520
I780
I20
I20
tRp707
ag2
(I240
I660
I20
I20
tRp708
ag2
(I780
I620
I20
I20
tRp709
ag2
(I700
I120
I20
I20
tRp710
ag2
(I120
I760
I20
I20
tRp711
ag2
(I60
I740
I20
I20
tRp712
ag2
(I200
I240
I20
I20
tRp713
ag2
(I500
I680
I20
I20
tRp714
ag2
(I740
I200
I20
I20
tRp715
ag2
(I40
I540
I20
I20
tRp716
ag2
(I420
I300
I20
I20
tRp717
ag2
(I120
I20
I20
I20
tRp718
ag2
(I780
I100
I20
I20
tRp719
ag2
(I520
I440
I20
I20
tRp720
ag2
(I240
I320
I20
I20
tRp721
ag2
(I780
I280
I20
I20
tRp722
ag2
(I680
I520
I20
I20
tRp723
ag2
(I640
I100
I20
I20
tRp724
ag2
(I400
I480
I20
I20
tRp725
ag2
(I120
I780
I20
I20
tRp726
ag2
(I620
I540
I20
I20
tRp727
ag2
(I340
I460
I20
I20
tRp728
ag2
(I460
I760
I20
I20
tRp729
ag2
(I620
I560
I20
I20
tRp730
ag2
(I280
I440
I20
I20
tRp731
ag2
(I0
I320
I20
I20
tRp732
ag2
(I180
I700
I20
I20
tRp733
ag2
(I780
I680
I20
I20
tRp734
ag2
(I720
I660
I20
I20
tRp735
ag2
(I40
I200
I20
I20
tRp736
ag2
(I580
I120
I20
I20
tRp737
ag2
(I220
I420
I20
I20
tRp738
ag2
(I100
I480
I20
I20
tRp739
ag2
(I140
I0
I20
I20
tRp740
ag2
(I220
I780
I20
I20
tRp741
ag2
(I760
I740
I20
I20
tRp742
ag2
(I680
I180
I20
I20
tRp743
ag2
(I620
I200
I20
I20
tRp744
ag2
(I340
I120
I20
I20
tRp745
ag2
(I460
I420
I20
I20
tRp746
ag2
(I180
I300
I20
I20
tRp747
ag2
(I280
I100
I20
I20
tRp748
ag2
(I720
I260
I20
I20
tRp749
ag2
(I540
I400
I20
I20
tRp750
ag2
(I160
I100
I20
I20
tRp751
ag2
(I420
I580
I20
I20
tRp752
ag2
(I100
I80
I20
I20
tRp753
ag2
(I100
I140
I20
I20
tRp754
ag2
(I220
I440
I20
I20
tRp755
ag2
(I60
I200
I20
I20
tRp756
ag2
(I300
I40
I20
I20
tRp757
ag2
(I600
I660
I20
I20
tRp758
ag2
(I140
I40
I20
I20
tRp759
ag2
(I320
I580
I20
I20
tRp760
ag2
(I20
I60
I20
I20
tRp761
ag2
(I460
I80
I20
I20
tRp762
ag2
(I160
I760
I20
I20
tRp763
ag2
(I260
I560
I20
I20
tRp764
ag2
(I700
I720
I20
I20
tRp765
ag2
(I240
I200
I20
I20
tRp766
ag2
(I140
I560
I20
I20
tRp767
ag2
(I560
I180
I20
I20
tRp768
ag2
(I80
I540
I20
I20
tRp769
ag2
(I500
I160
I20
I20
tRp770
ag2
(I220
I40
I20
I20
tRp771
ag2
(I140
I60
I20
I20
tRp772
ag2
(I480
I680
I20
I20
tRp773
ag2
(I760
I0
I20
I20
tRp774
ag2
(I600
I260
I20
I20
tRp775
ag2
(I280
I500
I20
I20
tRp776
ag2
(I320
I240
I20
I20
tRp777
ag2
(I0
I640
I20
I20
tRp778
ag2
(I160
I420
I20
I20
tRp779
ag2
(I260
I220
I20
I20
tRp780
ag2
(I640
I220
I20
I20
tRp781
ag2
(I40
I300
I20
I20
tRp782
ag2
(I140
I220
I20
I20
tRp783
ag2
(I80
I200
I20
I20
tRp784
ag2
(I480
I620
I20
I20
tRp785
ag2
(I200
I500
I20
I20
tRp786
ag2
(I740
I460
I20
I20
tRp787
ag2
(I640
I740
I20
I20
tRp788
ag2
(I580
I720
I20
I20
tRp789
ag2
(I120
I280
I20
I20
tRp790
ag2
(I520
I700
I20
I20
tRp791
ag2
(I260
I340
I20
I20
tRp792
ag2
(I680
I0
I20
I20
tRp793
ag2
(I780
I540
I20
I20
tRp794
ag2
(I680
I780
I20
I20
tRp795
ag2
(I120
I680
I20
I20
tRp796
ag2
(I540
I300
I20
I20
tRp797
ag2
(I340
I780
I20
I20
tRp798
ag2
(I60
I660
I20
I20
tRp799
ag2
(I400
I760
I20
I20
tRp800
ag2
(I480
I280
I20
I20
tRp801
ag2
(I200
I160
I20
I20
tRp802
ag2
(I440
I200
I20
I20
tRp803
ag2
(I40
I80
I20
I20
tRp804
ag2
(I100
I740
I20
I20
tRp805
ag2
(I240
I240
I20
I20
tRp806
ag2
(I60
I320
I20
I20
tRp807
ag2
(I780
I200
I20
I20
tRp808
ag2
(I680
I440
I20
I20
tRp809
ag2
(I300
I640
I20
I20
tRp810
ag2
(I620
I460
I20
I20
tRp811
ag2
(I260
I380
I20
I20
tRp812
ag2
(I80
I60
I20
I20
tRp813
ag2
(I460
I680
I20
I20
tRp814
ag2
(I180
I560
I20
I20
tRp815
ag2
(I260
I700
I20
I20
tRp816
ag2
(I720
I580
I20
I20
tRp817
ag2
(I40
I120
I20
I20
tRp818
ag2
(I320
I540
I20
I20
tRp819
ag2
(I580
I40
I20
I20
tRp820
ag2
(I100
I400
I20
I20
tRp821
ag2
(I220
I700
I20
I20
tRp822
ag2
(I640
I320
I20
I20
tRp823
ag2
(I760
I660
I20
I20
tRp824
ag2
(I680
I100
I20
I20
tRp825
ag2
(I300
I300
I20
I20
tRp826
ag2
(I340
I40
I20
I20
tRp827
ag2
(I380
I660
I20
I20
tRp828
ag2
(I20
I320
I20
I20
tRp829
ag2
(I180
I220
I20
I20
tRp830
ag2
(I640
I340
I20
I20
tRp831
ag2
(I40
I660
I20
I20
tRp832
ag2
(I140
I180
I20
I20
tRp833
ag2
(I560
I440
I20
I20
tRp834
ag2
(I100
I0
I20
I20
tRp835
ag2
(I500
I420
I20
I20
tRp836
ag2
(I220
I300
I20
I20
tRp837
ag2
(I0
I620
I20
I20
tRp838
ag2
(I400
I720
I20
I20
tRp839
ag2
(I760
I320
I20
I20
tRp840
ag2
(I660
I560
I20
I20
tRp841
ag2
(I320
I500
I20
I20
tRp842
ag2
(I200
I320
I20
I20
tRp843
ag2
(I460
I0
I20
I20
tRp844
ag2
(I160
I680
I20
I20
tRp845
ag2
(I260
I480
I20
I20
tRp846
ag2
(I700
I640
I20
I20
tRp847
ag2
(I140
I480
I20
I20
tRp848
ag2
(I560
I100
I20
I20
tRp849
ag2
(I500
I80
I20
I20
tRp850
ag2
(I740
I720
I20
I20
tRp851
ag2
(I60
I260
I20
I20
tRp852
ag2
(I220
I140
I20
I20
tRp853
ag2
(I120
I440
I20
I20
tRp854
ag2
(I120
I540
I20
I20
tRp855
ag2
(I320
I160
I20
I20
tRp856
ag2
(I0
I360
I20
I20
tRp857
ag2
(I440
I460
I20
I20
tRp858
ag2
(I260
I140
I20
I20
tRp859
ag2
(I700
I300
I20
I20
tRp860
ag2
(I460
I620
I20
I20
tRp861
ag2
(I140
I140
I20
I20
tRp862
ag2
(I360
I240
I20
I20
tRp863
ag2
(I80
I120
I20
I20
tRp864
ag2
(I480
I540
I20
I20
tRp865
ag2
(I200
I420
I20
I20
tRp866
ag2
(I240
I440
I20
I20
tRp867
ag2
(I740
I380
I20
I20
tRp868
ag2
(I40
I720
I20
I20
tRp869
ag2
(I120
I200
I20
I20
tRp870
ag2
(I520
I620
I20
I20
tRp871
ag2
(I440
I60
I20
I20
tRp872
ag2
(I100
I600
I20
I20
tRp873
ag2
(I780
I460
I20
I20
tRp874
ag2
(I680
I700
I20
I20
tRp875
ag2
(I420
I660
I20
I20
tRp876
ag2
(I20
I280
I20
I20
tRp877
ag2
(I320
I100
I20
I20
tRp878
ag2
(I620
I720
I20
I20
tRp879
ag2
(I120
I600
I20
I20
tRp880
ag2
(I540
I220
I20
I20
tRp881
ag2
(I340
I700
I20
I20
tRp882
ag2
(I60
I580
I20
I20
tRp883
ag2
(I480
I200
I20
I20
tRp884
ag2
(I200
I80
I20
I20
tRp885
ag2
(I640
I460
I20
I20
tRp886
ag2
(I740
I40
I20
I20
tRp887
ag2
(I520
I200
I20
I20
tRp888
ag2
(I580
I300
I20
I20
tRp889
ag2
(I100
I660
I20
I20
tRp890
ag2
(I240
I160
I20
I20
tRp891
ag2
(I780
I120
I20
I20
tRp892
ag2
(I280
I260
I20
I20
tRp893
ag2
(I620
I380
I20
I20
tRp894
ag2
(I340
I300
I20
I20
tRp895
ag2
(I20
I580
I20
I20
tRp896
ag2
(I460
I600
I20
I20
tRp897
ag2
(I460
I100
I20
I20
tRp898
ag2
(I280
I280
I20
I20
tRp899
ag2
(I720
I440
I20
I20
tRp900
ag2
(I620
I780
I20
I20
tRp901
ag2
(I420
I200
I20
I20
tRp902
ag2
(I560
I760
I20
I20
tRp903
ag2
(I100
I320
I20
I20
tRp904
ag2
(I500
I740
I20
I20
tRp905
ag2
(I420
I180
I20
I20
tRp906
ag2
(I140
I320
I20
I20
tRp907
ag2
(I680
I20
I20
I20
tRp908
ag2
(I380
I780
I20
I20
tRp909
ag2
(I300
I220
I20
I20
tRp910
ag2
(I620
I40
I20
I20
tRp911
ag2
(I660
I240
I20
I20
tRp912
ag2
(I620
I520
I20
I20
tRp913
ag2
(I20
I240
I20
I20
tRp914
ag2
(I460
I260
I20
I20
tRp915
ag2
(I180
I140
I20
I20
tRp916
ag2
(I260
I740
I20
I20
tRp917
ag2
(I720
I100
I20
I20
tRp918
ag2
(I140
I740
I20
I20
tRp919
ag2
(I560
I360
I20
I20
tRp920
ag2
(I140
I340
I20
I20
tRp921
ag2
(I80
I720
I20
I20
tRp922
ag2
(I500
I340
I20
I20
tRp923
ag2
(I220
I220
I20
I20
tRp924
ag2
(I540
I40
I20
I20
tRp925
ag2
(I760
I240
I20
I20
tRp926
ag2
(I660
I480
I20
I20
tRp927
ag2
(I380
I440
I20
I20
tRp928
ag2
(I280
I680
I20
I20
tRp929
ag2
(I600
I500
I20
I20
tRp930
ag2
(I320
I420
I20
I20
tRp931
ag2
(I0
I700
I20
I20
tRp932
ag2
(I440
I720
I20
I20
tRp933
ag2
(I160
I600
I20
I20
tRp934
ag2
(I260
I400
I20
I20
tRp935
ag2
(I700
I560
I20
I20
tRp936
ag2
(I140
I400
I20
I20
tRp937
ag2
(I360
I500
I20
I20
tRp938
ag2
(I500
I0
I20
I20
tRp939
ag2
(I740
I640
I20
I20
tRp940
ag2
(I660
I120
I20
I20
tRp941
ag2
(I140
I380
I20
I20
tRp942
ag2
(I600
I100
I20
I20
tRp943
ag2
(I540
I80
I20
I20
tRp944
ag2
(I440
I320
I20
I20
tRp945
ag2
(I420
I640
I20
I20
tRp946
ag2
(I160
I260
I20
I20
tRp947
ag2
(I260
I60
I20
I20
tRp948
ag2
(I700
I220
I20
I20
tRp949
ag2
(I540
I480
I20
I20
tRp950
ag2
(I80
I40
I20
I20
tRp951
ag2
(I40
I620
I20
I20
tRp952
ag2
(I0
I60
I20
I20
tRp953
ag2
(I740
I300
I20
I20
tRp954
ag2
(I640
I580
I20
I20
tRp955
ag2
(I580
I560
I20
I20
tRp956
ag2
(I120
I120
I20
I20
tRp957
ag2
(I420
I780
I20
I20
tRp958
ag2
(I780
I380
I20
I20
tRp959
ag2
(I460
I220
I20
I20
tRp960
ag2
(I640
I120
I20
I20
tRp961
ag2
(I40
I440
I20
I20
tRp962
ag2
(I620
I640
I20
I20
tRp963
ag2
(I160
I540
I20
I20
tRp964
ag2
(I780
I780
I20
I20
tRp965
ag2
(I720
I760
I20
I20
tRp966
ag2
(I640
I240
I20
I20
tRp967
ag2
(I400
I120
I20
I20
tRp968
ag2
(I100
I580
I20
I20
tRp969
ag2
(I420
I440
I20
I20
tRp970
ag2
(I780
I40
I20
I20
tRp971
ag2
(I680
I280
I20
I20
tRp972
ag2
(I400
I240
I20
I20
tRp973
ag2
(I300
I480
I20
I20
tRp974
ag2
(I620
I300
I20
I20
tRp975
ag2
(I460
I520
I20
I20
tRp976
ag2
(I160
I140
I20
I20
tRp977
ag2
(I560
I680
I20
I20
tRp978
ag2
(I100
I240
I20
I20
tRp979
ag2
(I500
I660
I20
I20
tRp980
ag2
(I420
I100
I20
I20
tRp981
ag2
(I60
I220
I20
I20
tRp982
ag2
(I660
I740
I20
I20
tRp983
ag2
(I560
I60
I20
I20
tRp984
ag2
(I600
I760
I20
I20
tRp985
ag2
(I320
I680
I20
I20
tRp986
ag2
(I20
I160
I20
I20
tRp987
ag2
(I260
I660
I20
I20
tRp988
ag2
(I720
I20
I20
I20
tRp989
ag2
(I0
I480
I20
I20
tRp990
ag2
(I560
I280
I20
I20
tRp991
ag2
(I260
I420
I20
I20
tRp992
ag2
(I200
I620
I20
I20
tRp993
ag2
(I760
I100
I20
I20
tRp994
ag2
(I120
I60
I20
I20
tRp995
ag2
(I660
I400
I20
I20
tRp996
ag2
(I600
I420
I20
I20
tRp997
ag2
(I0
I660
I20
I20
tRp998
ag2
(I440
I640
I20
I20
tRp999
ag2
(I160
I520
I20
I20
tRp1000
ag2
(I260
I320
I20
I20
tRp1001
ag2
(I700
I480
I20
I20
tRp1002
ag2
(I540
I740
I20
I20
tRp1003
ag2
(I80
I300
I20
I20
tRp1004
ag2
(I0
I260
I20
I20
tRp1005
ag2
(I740
I560
I20
I20
tRp1006
ag2
(I60
I100
I20
I20
tRp1007
ag2
(I600
I20
I20
I20
tRp1008
ag2
(I200
I660
I20
I20
tRp1009
ag2
(I120
I380
I20
I20
tRp1010
ag2
(I540
I0
I20
I20
tRp1011
ag2
(I240
I680
I20
I20
tRp1012
ag2
(I660
I720
I20
I20
tRp1013
ag2
(I60
I760
I20
I20
tRp1014
ag2
(I0
I40
I20
I20
tRp1015
ag2
(I200
I260
I20
I20
tRp1016
ag2
(I120
I100
I20
I20
tRp1017
ag2
(I440
I220
I20
I20
tRp1018
ag2
(I740
I220
I20
I20
tRp1019
ag2
(I700
I320
I20
I20
tRp1020
ag2
(I40
I560
I20
I20
tRp1021
ag2
(I580
I480
I20
I20
tRp1022
ag2
(I40
I100
I20
I20
tRp1023
ag2
(I120
I40
I20
I20
tRp1024
ag2
(I520
I460
I20
I20
tRp1025
ag2
(I240
I340
I20
I20
tRp1026
ag2
(I780
I300
I20
I20
tRp1027
ag2
(I680
I540
I20
I20
tRp1028
ag2
(I280
I20
I20
I20
tRp1029
ag2
(I300
I740
I20
I20
tRp1030
ag2
(I340
I480
I20
I20
tRp1031
ag2
(I460
I780
I20
I20
tRp1032
ag2
(I620
I660
I20
I20
tRp1033
ag2
(I180
I660
I20
I20
tRp1034
ag2
(I280
I460
I20
I20
tRp1035
ag2
(I480
I40
I20
I20
tRp1036
ag2
(I180
I720
I20
I20
tRp1037
ag2
(I780
I700
I20
I20
tRp1038
ag2
(I720
I680
I20
I20
tRp1039
ag2
(I40
I220
I20
I20
tRp1040
ag2
(I720
I460
I20
I20
tRp1041
ag2
(I100
I500
I20
I20
tRp1042
ag2
(I520
I120
I20
I20
tRp1043
ag2
(I760
I760
I20
I20
tRp1044
ag2
(I680
I200
I20
I20
tRp1045
ag2
(I300
I400
I20
I20
tRp1046
ag2
(I340
I140
I20
I20
tRp1047
ag2
(I460
I440
I20
I20
tRp1048
ag2
(I180
I320
I20
I20
tRp1049
ag2
(I280
I120
I20
I20
tRp1050
ag2
(I780
I420
I20
I20
tRp1051
ag2
(I720
I280
I20
I20
tRp1052
ag2
(I620
I320
I20
I20
tRp1053
ag2
(I160
I120
I20
I20
tRp1054
ag2
(I560
I540
I20
I20
tRp1055
ag2
(I680
I360
I20
I20
tRp1056
ag2
(I100
I100
I20
I20
tRp1057
ag2
(I100
I160
I20
I20
tRp1058
ag2
(I660
I660
I20
I20
tRp1059
ag2
(I300
I60
I20
I20
tRp1060
ag2
(I620
I340
I20
I20
tRp1061
ag2
(I320
I600
I20
I20
tRp1062
ag2
(I20
I80
I20
I20
tRp1063
ag2
(I160
I780
I20
I20
tRp1064
ag2
(I260
I580
I20
I20
tRp1065
ag2
(I700
I740
I20
I20
tRp1066
ag2
(I0
I160
I20
I20
tRp1067
ag2
(I140
I580
I20
I20
tRp1068
ag2
(I560
I200
I20
I20
tRp1069
ag2
(I80
I560
I20
I20
tRp1070
ag2
(I0
I0
I20
I20
tRp1071
ag2
(I220
I60
I20
I20
tRp1072
ag2
(I140
I660
I20
I20
tRp1073
ag2
(I760
I20
I20
I20
tRp1074
ag2
(I60
I360
I20
I20
tRp1075
ag2
(I540
I500
I20
I20
tRp1076
ag2
(I380
I280
I20
I20
tRp1077
ag2
(I280
I520
I20
I20
tRp1078
ag2
(I320
I260
I20
I20
tRp1079
ag2
(I0
I560
I20
I20
tRp1080
ag2
(I160
I440
I20
I20
tRp1081
ag2
(I260
I240
I20
I20
tRp1082
ag2
(I700
I400
I20
I20
tRp1083
ag2
(I140
I680
I20
I20
tRp1084
ag2
(I140
I240
I20
I20
tRp1085
ag2
(I540
I660
I20
I20
tRp1086
ag2
(I360
I340
I20
I20
tRp1087
ag2
(I80
I220
I20
I20
tRp1088
ag2
(I480
I640
I20
I20
tRp1089
ag2
(I240
I460
I20
I20
tRp1090
ag2
(I740
I480
I20
I20
tRp1091
ag2
(I640
I760
I20
I20
tRp1092
ag2
(I580
I740
I20
I20
tRp1093
ag2
(I120
I300
I20
I20
tRp1094
ag2
(I520
I720
I20
I20
tRp1095
ag2
(I400
I380
I20
I20
tRp1096
ag2
(I780
I560
I20
I20
tRp1097
ag2
(I700
I0
I20
I20
tRp1098
ag2
(I160
I180
I20
I20
tRp1099
ag2
(I420
I680
I20
I20
tRp1100
ag2
(I700
I60
I20
I20
tRp1101
ag2
(I120
I700
I20
I20
tRp1102
ag2
(I540
I320
I20
I20
tRp1103
ag2
(I360
I0
I20
I20
tRp1104
ag2
(I60
I680
I20
I20
tRp1105
ag2
(I480
I300
I20
I20
tRp1106
ag2
(I200
I180
I20
I20
tRp1107
ag2
(I640
I480
I20
I20
tRp1108
ag2
(I60
I0
I20
I20
tRp1109
ag2
(I60
I140
I20
I20
tRp1110
ag2
(I580
I460
I20
I20
tRp1111
ag2
(I40
I480
I20
I20
tRp1112
ag2
(I580
I400
I20
I20
tRp1113
ag2
(I100
I760
I20
I20
tRp1114
ag2
(I520
I380
I20
I20
tRp1115
ag2
(I420
I620
I20
I20
tRp1116
ag2
(I780
I220
I20
I20
tRp1117
ag2
(I680
I460
I20
I20
tRp1118
ag2
(I240
I0
I20
I20
tRp1119
ag2
(I300
I660
I20
I20
tRp1120
ag2
(I620
I480
I20
I20
tRp1121
ag2
(I60
I160
I20
I20
tRp1122
ag2
(I460
I700
I20
I20
tRp1123
ag2
(I180
I580
I20
I20
tRp1124
ag2
(I420
I700
I20
I20
tRp1125
ag2
(I720
I600
I20
I20
tRp1126
ag2
(I640
I80
I20
I20
tRp1127
ag2
(I580
I60
I20
I20
tRp1128
ag2
(I100
I420
I20
I20
tRp1129
ag2
(I520
I40
I20
I20
tRp1130
ag2
(I220
I720
I20
I20
tRp1131
ag2
(I280
I200
I20
I20
tRp1132
ag2
(I760
I680
I20
I20
tRp1133
ag2
(I680
I120
I20
I20
tRp1134
ag2
(I300
I320
I20
I20
tRp1135
ag2
(I340
I60
I20
I20
tRp1136
ag2
(I20
I340
I20
I20
tRp1137
ag2
(I460
I360
I20
I20
tRp1138
ag2
(I180
I240
I20
I20
tRp1139
ag2
(I280
I40
I20
I20
tRp1140
ag2
(I720
I200
I20
I20
tRp1141
ag2
(I280
I220
I20
I20
tRp1142
ag2
(I160
I40
I20
I20
tRp1143
ag2
(I560
I460
I20
I20
tRp1144
ag2
(I100
I20
I20
I20
tRp1145
ag2
(I500
I440
I20
I20
tRp1146
ag2
(I420
I280
I20
I20
tRp1147
ag2
(I220
I320
I20
I20
tRp1148
ag2
(I500
I500
I20
I20
tRp1149
ag2
(I760
I340
I20
I20
tRp1150
ag2
(I660
I580
I20
I20
tRp1151
ag2
(I380
I540
I20
I20
tRp1152
ag2
(I280
I780
I20
I20
tRp1153
ag2
(I320
I520
I20
I20
tRp1154
ag2
(I620
I500
I20
I20
tRp1155
ag2
(I500
I260
I20
I20
tRp1156
ag2
(I160
I700
I20
I20
tRp1157
ag2
(I260
I500
I20
I20
tRp1158
ag2
(I700
I660
I20
I20
tRp1159
ag2
(I140
I500
I20
I20
tRp1160
ag2
(I560
I120
I20
I20
tRp1161
ag2
(I360
I600
I20
I20
tRp1162
ag2
(I80
I480
I20
I20
tRp1163
ag2
(I500
I100
I20
I20
tRp1164
ag2
(I200
I780
I20
I20
tRp1165
ag2
(I740
I740
I20
I20
tRp1166
ag2
(I380
I40
I20
I20
tRp1167
ag2
(I660
I220
I20
I20
tRp1168
ag2
(I160
I200
I20
I20
tRp1169
ag2
(I120
I560
I20
I20
tRp1170
ag2
(I320
I180
I20
I20
tRp1171
ag2
(I0
I500
I20
I20
tRp1172
ag2
(I440
I480
I20
I20
tRp1173
ag2
(I260
I160
I20
I20
tRp1174
ag2
(I240
I120
I20
I20
tRp1175
ag2
(I140
I160
I20
I20
tRp1176
ag2
(I220
I160
I20
I20
tRp1177
ag2
(I540
I580
I20
I20
tRp1178
ag2
(I80
I140
I20
I20
tRp1179
ag2
(I200
I440
I20
I20
tRp1180
ag2
(I480
I600
I20
I20
tRp1181
ag2
(I740
I400
I20
I20
tRp1182
ag2
(I640
I680
I20
I20
tRp1183
ag2
(I580
I660
I20
I20
tRp1184
ag2
(I120
I220
I20
I20
tRp1185
ag2
(I440
I80
I20
I20
tRp1186
ag2
(I220
I180
I20
I20
tRp1187
ag2
(I780
I480
I20
I20
tRp1188
ag2
(I680
I720
I20
I20
tRp1189
ag2
(I320
I120
I20
I20
tRp1190
ag2
(I120
I620
I20
I20
tRp1191
ag2
(I520
I100
I20
I20
tRp1192
ag2
(I540
I240
I20
I20
tRp1193
ag2
(I340
I720
I20
I20
tRp1194
ag2
(I60
I600
I20
I20
tRp1195
ag2
(I480
I220
I20
I20
tRp1196
ag2
(I200
I100
I20
I20
tRp1197
ag2
(I740
I60
I20
I20
tRp1198
ag2
(I620
I580
I20
I20
tRp1199
ag2
(I580
I320
I20
I20
tRp1200
ag2
(I100
I680
I20
I20
tRp1201
ag2
(I520
I300
I20
I20
tRp1202
ag2
(I420
I540
I20
I20
tRp1203
ag2
(I780
I140
I20
I20
tRp1204
ag2
(I400
I340
I20
I20
tRp1205
ag2
(I300
I580
I20
I20
tRp1206
ag2
(I620
I400
I20
I20
tRp1207
ag2
(I560
I400
I20
I20
tRp1208
ag2
(I20
I600
I20
I20
tRp1209
ag2
(I560
I480
I20
I20
tRp1210
ag2
(I660
I200
I20
I20
tRp1211
ag2
(I280
I300
I20
I20
tRp1212
ag2
(I440
I120
I20
I20
tRp1213
ag2
(I480
I420
I20
I20
tRp1214
ag2
(I720
I520
I20
I20
tRp1215
ag2
(I640
I0
I20
I20
tRp1216
ag2
(I560
I780
I20
I20
tRp1217
ag2
(I40
I0
I20
I20
tRp1218
ag2
(I500
I760
I20
I20
tRp1219
ag2
(I640
I720
I20
I20
tRp1220
ag2
(I60
I240
I20
I20
tRp1221
ag2
(I560
I500
I20
I20
tRp1222
ag2
(I680
I40
I20
I20
tRp1223
ag2
(I400
I0
I20
I20
tRp1224
ag2
(I300
I240
I20
I20
tRp1225
ag2
(I620
I60
I20
I20
tRp1226
ag2
(I320
I780
I20
I20
tRp1227
ag2
(I20
I260
I20
I20
tRp1228
ag2
(I460
I280
I20
I20
tRp1229
ag2
(I180
I160
I20
I20
tRp1230
ag2
(I740
I760
I20
I20
tRp1231
ag2
(I720
I120
I20
I20
tRp1232
ag2
(I140
I760
I20
I20
tRp1233
ag2
(I540
I60
I20
I20
tRp1234
ag2
(I380
I60
I20
I20
tRp1235
ag2
(I80
I740
I20
I20
tRp1236
ag2
(I220
I240
I20
I20
tRp1237
ag2
(I60
I440
I20
I20
tRp1238
ag2
(I480
I720
I20
I20
tRp1239
ag2
(I760
I260
I20
I20
tRp1240
ag2
(I280
I700
I20
I20
tRp1241
ag2
(I320
I440
I20
I20
tRp1242
ag2
(I0
I720
I20
I20
tRp1243
ag2
(I440
I740
I20
I20
tRp1244
ag2
(I160
I620
I20
I20
tRp1245
ag2
(I280
I400
I20
I20
tRp1246
ag2
(I700
I580
I20
I20
tRp1247
ag2
(I640
I260
I20
I20
tRp1248
ag2
(I140
I420
I20
I20
tRp1249
ag2
(I560
I40
I20
I20
tRp1250
ag2
(I80
I400
I20
I20
tRp1251
ag2
(I740
I660
I20
I20
tRp1252
ag2
(I660
I140
I20
I20
tRp1253
ag2
(I600
I120
I20
I20
tRp1254
ag2
(I220
I580
I20
I20
tRp1255
ag2
(I120
I480
I20
I20
tRp1256
ag2
(I540
I100
I20
I20
tRp1257
ag2
(I460
I400
I20
I20
tRp1258
ag2
(I0
I460
I20
I20
tRp1259
ag2
(I440
I400
I20
I20
tRp1260
ag2
(I160
I280
I20
I20
tRp1261
ag2
(I260
I80
I20
I20
tRp1262
ag2
(I700
I240
I20
I20
tRp1263
ag2
(I140
I80
I20
I20
tRp1264
ag2
(I560
I580
I20
I20
tRp1265
ag2
(I420
I0
I20
I20
tRp1266
ag2
(I480
I480
I20
I20
tRp1267
ag2
(I200
I360
I20
I20
tRp1268
ag2
(I740
I320
I20
I20
tRp1269
ag2
(I640
I600
I20
I20
tRp1270
ag2
(I580
I580
I20
I20
tRp1271
ag2
(I120
I140
I20
I20
tRp1272
ag2
(I520
I560
I20
I20
tRp1273
ag2
(I440
I0
I20
I20
tRp1274
ag2
(I660
I40
I20
I20
tRp1275
ag2
(I780
I400
I20
I20
tRp1276
ag2
(I160
I220
I20
I20
tRp1277
ag2
(I400
I600
I20
I20
tRp1278
ag2
(I320
I40
I20
I20
tRp1279
ag2
(I480
I440
I20
I20
tRp1280
ag2
(I340
I580
I20
I20
tRp1281
ag2
(I340
I640
I20
I20
tRp1282
ag2
(I60
I520
I20
I20
tRp1283
ag2
(I200
I20
I20
I20
tRp1284
a.(lp1
cpygame
__rect_constructor
p2
(I380
I500
I20
I20
tRp3
ag2
(I760
I480
I20
I20
tRp4
ag2
(I600
I560
I20
I20
tRp5
ag2
(I200
I760
I20
I20
tRp6
ag2
(I220
I660
I20
I20
tRp7
ag2
(I380
I580
I20
I20
tRp8
ag2
(I60
I460
I20
I20
tRp9
ag2
(I680
I620
I20
I20
tRp10
ag2
(I600
I640
I20
I20
tRp11
ag2
(I240
I600
I20
I20
tRp12
ag2
(I480
I340
I20
I20
tRp13
ag2
(I740
I140
I20
I20
tRp14
ag2
(I200
I340
I20
I20
tRp15
ag2
(I420
I380
I20
I20
tRp16
ag2
(I380
I740
I20
I20
tRp17
ag2
(I20
I740
I20
I20
tRp18
ag2
(I360
I320
I20
I20
tRp19
ag2
(I700
I620
I20
I20
tRp20
ag2
(I580
I160
I20
I20
tRp21
ag2
(I360
I140
I20
I20
tRp22
ag2
(I360
I400
I20
I20
tRp23
ag2
(I40
I640
I20
I20
tRp24
ag2
(I700
I160
I20
I20
tRp25
ag2
(I300
I340
I20
I20
tRp26
ag2
(I200
I580
I20
I20
tRp27
ag2
(I140
I460
I20
I20
tRp28
ag2
(I360
I180
I20
I20
tRp29
ag2
(I400
I180
I20
I20
tRp30
ag2
(I620
I140
I20
I20
tRp31
ag2
(I420
I320
I20
I20
tRp32
ag2
(I400
I140
I20
I20
tRp33
ag2
(I360
I560
I20
I20
tRp34
ag2
(I580
I20
I20
I20
tRp35
ag2
(I680
I380
I20
I20
tRp36
ag2
(I460
I380
I20
I20
tRp37
ag2
(I580
I640
I20
I20
tRp38
ag2
(I600
I180
I20
I20
tRp39
ag2
(I340
I380
I20
I20
tRp40
ag2
(I540
I160
I20
I20
tRp41
ag2
(I60
I380
I20
I20
tRp42
ag2
(I720
I140
I20
I20
tRp43
ag2
(I520
I520
I20
I20
tRp44
ag2
(I180
I340
I20
I20
tRp45
ag2
(I400
I580
I20
I20
tRp46
ag2
(I700
I140
I20
I20
tRp47
ag2
(I400
I420
I20
I20
tRp48
ag2
(I340
I320
I20
I20
tRp49
ag2
(I240
I580
I20
I20
tRp50
ag2
(I360
I440
I20
I20
tRp51
ag2
(I360
I80
I20
I20
tRp52
ag2
(I340
I400
I20
I20
tRp53
ag2
(I120
I640
I20
I20
tRp54
ag2
(I360
I160
I20
I20
tRp55
ag2
(I20
I640
I20
I20
tRp56
ag2
(I380
I240
I20
I20
tRp57
ag2
(I720
I380
I20
I20
tRp58
ag2
(I620
I220
I20
I20
tRp59
ag2
(I120
I460
I20
I20
tRp60
ag2
(I280
I380
I20
I20
tRp61
ag2
(I20
I720
I20
I20
tRp62
ag2
(I660
I340
I20
I20
tRp63
ag2
(I380
I640
I20
I20
tRp64
ag2
(I760
I140
I20
I20
tRp65
ag2
(I720
I620
I20
I20
tRp66
ag2
(I220
I340
I20
I20
tRp67
ag2
(I500
I520
I20
I20
tRp68
ag2
(I380
I140
I20
I20
tRp69
ag2
(I380
I320
I20
I20
tRp70
ag2
(I400
I700
I20
I20
tRp71
ag2
(I600
I380
I20
I20
tRp72
ag2
(I220
I480
I20
I20
tRp73
ag2
(I380
I400
I20
I20
tRp74
ag2
(I600
I520
I20
I20
tRp75
ag2
(I600
I320
I20
I20
tRp76
ag2
(I760
I360
I20
I20
tRp77
ag2
(I200
I740
I20
I20
tRp78
ag2
(I760
I580
I20
I20
tRp79
ag2
(I540
I380
I20
I20
tRp80
ag2
(I360
I680
I20
I20
tRp81
ag2
(I320
I380
I20
I20
tRp82
ag2
(I540
I520
I20
I20
tRp83
ag2
(I600
I540
I20
I20
tRp84
ag2
(I180
I460
I20
I20
tRp85
ag2
(I400
I560
I20
I20
tRp86
ag2
(I500
I180
I20
I20
tRp87
ag2
(I480
I360
I20
I20
tRp88
ag2
(I260
I360
I20
I20
tRp89
ag2
(I520
I160
I20
I20
tRp90
ag2
(I40
I380
I20
I20
tRp91
ag2
(I480
I380
I20
I20
tRp92
ag2
(I760
I600
I20
I20
tRp93
ag2
(I380
I720
I20
I20
tRp94
ag2
(I500
I20
I20
I20
tRp95
ag2
(I360
I300
I20
I20
tRp96
ag2
(I220
I760
I20
I20
tRp97
ag2
(I100
I380
I20
I20
tRp98
ag2
(I580
I380
I20
I20
tRp99
ag2
(I200
I560
I20
I20
tRp100
ag2
(I140
I360
I20
I20
tRp101
ag2
(I400
I80
I20
I20
tRp102
ag2
(I740
I360
I20
I20
tRp103
ag2
(I360
I460
I20
I20
tRp104
ag2
(I80
I340
I20
I20
tRp105
ag2
(I540
I20
I20
I20
tRp106
ag2
(I400
I160
I20
I20
tRp107
ag2
(I580
I520
I20
I20
tRp108
ag2
(I360
I540
I20
I20
tRp109
ag2
(I660
I160
I20
I20
tRp110
ag2
(I200
I720
I20
I20
tRp111
ag2
(I20
I420
I20
I20
tRp112
ag2
(I400
I680
I20
I20
tRp113
ag2
(I400
I320
I20
I20
tRp114
ag2
(I400
I20
I20
I20
tRp115
ag2
(I360
I700
I20
I20
tRp116
ag2
(I400
I400
I20
I20
tRp117
ag2
(I360
I60
I20
I20
tRp118
ag2
(I100
I460
I20
I20
tRp119
ag2
(I200
I640
I20
I20
tRp120
ag2
(I380
I120
I20
I20
tRp121
ag2
(I380
I480
I20
I20
tRp122
ag2
(I240
I560
I20
I20
tRp123
ag2
(I560
I380
I20
I20
tRp124
ag2
(I380
I620
I20
I20
tRp125
ag2
(I760
I460
I20
I20
tRp126
ag2
(I520
I20
I20
I20
tRp127
ag2
(I0
I760
I20
I20
tRp128
ag2
(I720
I360
I20
I20
tRp129
ag2
(I500
I600
I20
I20
tRp130
ag2
(I500
I360
I20
I20
tRp131
ag2
(I280
I360
I20
I20
tRp132
ag2
(I20
I700
I20
I20
tRp133
ag2
(I360
I280
I20
I20
tRp134
ag2
(I400
I640
I20
I20
tRp135
ag2
(I400
I540
I20
I20
tRp136
ag2
(I180
I640
I20
I20
tRp137
ag2
(I420
I360
I20
I20
tRp138
ag2
(I380
I220
I20
I20
tRp139
ag2
(I480
I560
I20
I20
tRp140
ag2
(I760
I180
I20
I20
tRp141
ag2
(I220
I380
I20
I20
tRp142
ag2
(I720
I180
I20
I20
tRp143
ag2
(I200
I460
I20
I20
tRp144
ag2
(I600
I300
I20
I20
tRp145
ag2
(I500
I580
I20
I20
tRp146
ag2
(I220
I460
I20
I20
tRp147
ag2
(I480
I140
I20
I20
tRp148
ag2
(I380
I380
I20
I20
tRp149
ag2
(I640
I180
I20
I20
tRp150
ag2
(I160
I380
I20
I20
tRp151
ag2
(I620
I280
I20
I20
tRp152
ag2
(I340
I760
I20
I20
tRp153
ag2
(I760
I540
I20
I20
tRp154
ag2
(I380
I460
I20
I20
tRp155
ag2
(I160
I460
I20
I20
tRp156
ag2
(I520
I140
I20
I20
tRp157
ag2
(I40
I340
I20
I20
tRp158
ag2
(I120
I360
I20
I20
tRp159
ag2
(I220
I620
I20
I20
tRp160
ag2
(I600
I140
I20
I20
tRp161
ag2
(I80
I640
I20
I20
tRp162
ag2
(I600
I600
I20
I20
tRp163
ag2
(I560
I20
I20
I20
tRp164
ag2
(I400
I660
I20
I20
tRp165
ag2
(I40
I360
I20
I20
tRp166
ag2
(I620
I240
I20
I20
tRp167
ag2
(I640
I160
I20
I20
tRp168
ag2
(I600
I340
I20
I20
tRp169
ag2
(I420
I340
I20
I20
tRp170
ag2
(I380
I700
I20
I20
tRp171
ag2
(I100
I360
I20
I20
tRp172
ag2
(I460
I140
I20
I20
tRp173
ag2
(I200
I380
I20
I20
tRp174
ag2
(I420
I20
I20
I20
tRp175
ag2
(I100
I640
I20
I20
tRp176
ag2
(I360
I360
I20
I20
tRp177
ag2
(I620
I620
I20
I20
tRp178
ag2
(I400
I60
I20
I20
tRp179
ag2
(I320
I760
I20
I20
tRp180
ag2
(I200
I540
I20
I20
tRp181
ag2
(I640
I620
I20
I20
tRp182
ag2
(I300
I380
I20
I20
tRp183
ag2
(I360
I520
I20
I20
tRp184
ag2
(I580
I140
I20
I20
tRp185
ag2
(I680
I340
I20
I20
tRp186
ag2
(I460
I340
I20
I20
tRp187
ag2
(I460
I20
I20
I20
tRp188
ag2
(I200
I700
I20
I20
tRp189
ag2
(I20
I400
I20
I20
tRp190
ag2
(I760
I620
I20
I20
tRp191
ag2
(I400
I300
I20
I20
tRp192
ag2
(I360
I40
I20
I20
tRp193
ag2
(I620
I360
I20
I20
tRp194
ag2
(I760
I160
I20
I20
tRp195
ag2
(I440
I20
I20
I20
tRp196
ag2
(I380
I260
I20
I20
tRp197
ag2
(I460
I160
I20
I20
tRp198
ag2
(I180
I380
I20
I20
tRp199
ag2
(I360
I760
I20
I20
tRp200
ag2
(I360
I200
I20
I20
tRp201
ag2
(I400
I440
I20
I20
tRp202
ag2
(I20
I380
I20
I20
tRp203
ag2
(I400
I460
I20
I20
tRp204
ag2
(I340
I360
I20
I20
tRp205
ag2
(I760
I420
I20
I20
tRp206
ag2
(I720
I340
I20
I20
tRp207
ag2
(I480
I180
I20
I20
tRp208
ag2
(I280
I340
I20
I20
tRp209
ag2
(I420
I160
I20
I20
tRp210
ag2
(I20
I680
I20
I20
tRp211
ag2
(I580
I280
I20
I20
tRp212
ag2
(I560
I520
I20
I20
tRp213
ag2
(I640
I140
I20
I20
tRp214
ag2
(I600
I200
I20
I20
tRp215
ag2
(I680
I160
I20
I20
tRp216
ag2
(I380
I200
I20
I20
tRp217
ag2
(I640
I360
I20
I20
tRp218
ag2
(I440
I340
I20
I20
tRp219
ag2
(I660
I380
I20
I20
tRp220
ag2
(I600
I280
I20
I20
tRp221
ag2
(I380
I80
I20
I20
tRp222
ag2
(I220
I360
I20
I20
tRp223
ag2
(I460
I560
I20
I20
tRp224
ag2
(I360
I640
I20
I20
tRp225
ag2
(I480
I20
I20
I20
tRp226
ag2
(I620
I260
I20
I20
tRp227
ag2
(I500
I560
I20
I20
tRp228
ag2
(I400
I260
I20
I20
tRp229
ag2
(I760
I520
I20
I20
tRp230
ag2
(I380
I360
I20
I20
tRp231
ag2
(I160
I360
I20
I20
tRp232
ag2
(I500
I640
I20
I20
tRp233
ag2
(I220
I520
I20
I20
tRp234
ag2
(I260
I760
I20
I20
tRp235
ag2
(I540
I340
I20
I20
tRp236
ag2
(I320
I340
I20
I20
tRp237
ag2
(I760
I400
I20
I20
tRp238
ag2
(I220
I600
I20
I20
tRp239
ag2
(I380
I520
I20
I20
tRp240
ag2
(I280
I760
I20
I20
tRp241
ag2
(I600
I580
I20
I20
tRp242
ag2
(I220
I680
I20
I20
tRp243
ag2
(I380
I600
I20
I20
tRp244
ag2
(I100
I340
I20
I20
tRp245
ag2
(I580
I180
I20
I20
tRp246
ag2
(I200
I520
I20
I20
tRp247
ag2
(I760
I560
I20
I20
tRp248
ag2
(I760
I440
I20
I20
tRp249
ag2
(I580
I260
I20
I20
tRp250
ag2
(I360
I260
I20
I20
tRp251
ag2
(I420
I400
I20
I20
tRp252
ag2
(I380
I760
I20
I20
tRp253
ag2
(I80
I460
I20
I20
tRp254
ag2
(I580
I340
I20
I20
tRp255
ag2
(I20
I760
I20
I20
tRp256
ag2
(I620
I180
I20
I20
tRp257
ag2
(I540
I360
I20
I20
tRp258
ag2
(I400
I40
I20
I20
tRp259
ag2
(I360
I420
I20
I20
tRp260
ag2
(I460
I180
I20
I20
tRp261
ag2
(I420
I560
I20
I20
tRp262
ag2
(I380
I100
I20
I20
tRp263
ag2
(I160
I640
I20
I20
tRp264
ag2
(I580
I240
I20
I20
tRp265
ag2
(I200
I600
I20
I20
tRp266
ag2
(I80
I380
I20
I20
tRp267
ag2
(I400
I200
I20
I20
tRp268
ag2
(I360
I20
I20
I20
tRp269
ag2
(I360
I580
I20
I20
tRp270
ag2
(I740
I180
I20
I20
tRp271
ag2
(I240
I360
I20
I20
tRp272
ag2
(I400
I280
I20
I20
tRp273
ag2
(I360
I660
I20
I20
tRp274
ag2
(I20
I460
I20
I20
tRp275
ag2
(I20
I360
I20
I20
tRp276
ag2
(I400
I360
I20
I20
tRp277
ag2
(I520
I640
I20
I20
tRp278
ag2
(I600
I620
I20
I20
tRp279
ag2
(I240
I520
I20
I20
tRp280
ag2
(I560
I340
I20
I20
tRp281
ag2
(I340
I340
I20
I20
tRp282
ag2
(I380
I20
I20
I20
tRp283
ag2
(I560
I160
I20
I20
tRp284
ag2
(I700
I340
I20
I20
tRp285
ag2
(I400
I520
I20
I20
tRp286
ag2
(I600
I220
I20
I20
tRp287
ag2
(I300
I760
I20
I20
tRp288
ag2
(I500
I140
I20
I20
tRp289
ag2
(I240
I540
I20
I20
tRp290
ag2
(I440
I560
I20
I20
tRp291
ag2
(I20
I660
I20
I20
tRp292
ag2
(I60
I340
I20
I20
tRp293
ag2
(I540
I640
I20
I20
tRp294
ag2
(I200
I680
I20
I20
tRp295
ag2
(I240
I760
I20
I20
tRp296
ag2
(I600
I360
I20
I20
tRp297
ag2
(I660
I360
I20
I20
tRp298
ag2
(I60
I640
I20
I20
tRp299
ag2
(I40
I460
I20
I20
tRp300
ag2
(I140
I640
I20
I20
tRp301
ag2
(I760
I500
I20
I20
tRp302
ag2
(I440
I380
I20
I20
tRp303
ag2
(I20
I440
I20
I20
tRp304
ag2
(I560
I640
I20
I20
tRp305
ag2
(I700
I380
I20
I20
tRp306
ag2
(I500
I540
I20
I20
tRp307
ag2
(I520
I180
I20
I20
tRp308
ag2
(I440
I160
I20
I20
tRp309
ag2
(I380
I340
I20
I20
tRp310
ag2
(I520
I360
I20
I20
tRp311
ag2
(I160
I340
I20
I20
tRp312
ag2
(I500
I620
I20
I20
tRp313
ag2
(I220
I640
I20
I20
tRp314
ag2
(I220
I500
I20
I20
tRp315
ag2
(I580
I220
I20
I20
tRp316
ag2
(I760
I380
I20
I20
tRp317
ag2
(I700
I180
I20
I20
tRp318
ag2
(I660
I620
I20
I20
tRp319
ag2
(I740
I620
I20
I20
tRp320
a.